target datalayout = "e-m:e-p270:32:32-p271:32:32-p272:64:64-i64:64-i128:128-f80:128-n8:16:32:64-S128"
target triple = "x86_64-pc-linux-gnu"

%struct.gcm_funcs_st = type { ptr, ptr, ptr }
%struct.gcm128_context = type { %union.anon, %union.anon, %union.anon, %union.anon, %union.anon, %union.anon, [16 x %struct.u128], %struct.gcm_funcs_st, i32, i32, ptr, ptr, [48 x i8] }
%union.anon = type { [2 x i64] }
%struct.u128 = type { i64, i64 }

; Function Attrs: nounwind uwtable
define i32 @CRYPTO_gcm128_finish(ptr noundef %0, ptr noundef %1, i64 noundef %2) #0 {
  %4 = alloca i32, align 4
  %5 = alloca ptr, align 8
  %6 = alloca ptr, align 8
  %7 = alloca i64, align 8
  %8 = alloca i32, align 4
  %9 = alloca i64, align 8
  %10 = alloca i64, align 8
  %11 = alloca %struct.u128, align 8
  %12 = alloca i32, align 4
  %13 = alloca i32, align 4
  %14 = alloca i64, align 8
  %15 = alloca i64, align 8
  %16 = alloca i64, align 8
  %17 = alloca i64, align 8
  %18 = alloca i32, align 4
  store ptr %0, ptr %5, align 8, !tbaa !25
  store ptr %1, ptr %6, align 8, !tbaa !17
  store i64 %2, ptr %7, align 8, !tbaa !19
  call void @llvm.lifetime.start.p0(i64 4, ptr %8) #5
  store i32 1, ptr %8, align 4, !tbaa !15
  call void @llvm.lifetime.start.p0(i64 8, ptr %9) #5
  %19 = load ptr, ptr %5, align 8, !tbaa !25
  %20 = getelementptr inbounds nuw %struct.gcm128_context, ptr %19, i32 0, i32 3
  %21 = getelementptr inbounds [2 x i64], ptr %20, i64 0, i64 0
  %22 = load i64, ptr %21, align 8, !tbaa !30
  %23 = shl i64 %22, 3
  store i64 %23, ptr %9, align 8, !tbaa !21
  call void @llvm.lifetime.start.p0(i64 8, ptr %10) #5
  %24 = load ptr, ptr %5, align 8, !tbaa !25
  %25 = getelementptr inbounds nuw %struct.gcm128_context, ptr %24, i32 0, i32 3
  %26 = getelementptr inbounds [2 x i64], ptr %25, i64 0, i64 1
  %27 = load i64, ptr %26, align 8, !tbaa !30
  %28 = shl i64 %27, 3
  store i64 %28, ptr %10, align 8, !tbaa !21
  call void @llvm.lifetime.start.p0(i64 16, ptr %11) #5
  call void @llvm.lifetime.start.p0(i64 4, ptr %12) #5
  %29 = load ptr, ptr %5, align 8, !tbaa !25
  %30 = getelementptr inbounds nuw %struct.gcm128_context, ptr %29, i32 0, i32 8
  %31 = load i32, ptr %30, align 8, !tbaa !35
  store i32 %31, ptr %12, align 4, !tbaa !15
  %32 = load i32, ptr %12, align 4, !tbaa !15
  %33 = icmp ne i32 %32, 0
  br i1 %33, label %34, label %69

34:                                               ; preds = %3
  call void @llvm.lifetime.start.p0(i64 4, ptr %13) #5
  %35 = load i32, ptr %12, align 4, !tbaa !15
  %36 = add i32 %35, 15
  %37 = and i32 %36, -16
  store i32 %37, ptr %13, align 4, !tbaa !15
  %38 = load ptr, ptr %5, align 8, !tbaa !25
  %39 = getelementptr inbounds nuw %struct.gcm128_context, ptr %38, i32 0, i32 12
  %40 = getelementptr inbounds [48 x i8], ptr %39, i64 0, i64 0
  %41 = load i32, ptr %12, align 4, !tbaa !15
  %42 = zext i32 %41 to i64
  %43 = getelementptr inbounds nuw i8, ptr %40, i64 %42
  %44 = load i32, ptr %13, align 4, !tbaa !15
  %45 = load i32, ptr %12, align 4, !tbaa !15
  %46 = sub i32 %44, %45
  %47 = zext i32 %46 to i64
  call void @llvm.memset.p0.i64(ptr align 1 %43, i8 0, i64 %47, i1 false)
  %48 = load i32, ptr %13, align 4, !tbaa !15
  store i32 %48, ptr %12, align 4, !tbaa !15
  %49 = load i32, ptr %12, align 4, !tbaa !15
  %50 = zext i32 %49 to i64
  %51 = icmp eq i64 %50, 48
  br i1 %51, label %52, label %68

52:                                               ; preds = %34
  %53 = load ptr, ptr %5, align 8, !tbaa !25
  %54 = getelementptr inbounds nuw %struct.gcm128_context, ptr %53, i32 0, i32 7
  %55 = getelementptr inbounds nuw %struct.gcm_funcs_st, ptr %54, i32 0, i32 1
  %56 = load ptr, ptr %55, align 8, !tbaa !44
  %57 = load ptr, ptr %5, align 8, !tbaa !25
  %58 = getelementptr inbounds nuw %struct.gcm128_context, ptr %57, i32 0, i32 4
  %59 = getelementptr inbounds [2 x i64], ptr %58, i64 0, i64 0
  %60 = load ptr, ptr %5, align 8, !tbaa !25
  %61 = getelementptr inbounds nuw %struct.gcm128_context, ptr %60, i32 0, i32 6
  %62 = getelementptr inbounds [16 x %struct.u128], ptr %61, i64 0, i64 0
  %63 = load ptr, ptr %5, align 8, !tbaa !25
  %64 = getelementptr inbounds nuw %struct.gcm128_context, ptr %63, i32 0, i32 12
  %65 = getelementptr inbounds [48 x i8], ptr %64, i64 0, i64 0
  %66 = load i32, ptr %12, align 4, !tbaa !15
  %67 = zext i32 %66 to i64
  call void %56(ptr noundef %59, ptr noundef %62, ptr noundef %65, i64 noundef %67)
  store i32 0, ptr %12, align 4, !tbaa !15
  br label %68

68:                                               ; preds = %52, %34
  call void @llvm.lifetime.end.p0(i64 4, ptr %13) #5
  br label %86

69:                                               ; preds = %3
  %70 = load ptr, ptr %5, align 8, !tbaa !25
  %71 = getelementptr inbounds nuw %struct.gcm128_context, ptr %70, i32 0, i32 9
  %72 = load i32, ptr %71, align 4, !tbaa !34
  %73 = icmp ne i32 %72, 0
  br i1 %73, label %74, label %85

74:                                               ; preds = %69
  %75 = load ptr, ptr %5, align 8, !tbaa !25
  %76 = getelementptr inbounds nuw %struct.gcm128_context, ptr %75, i32 0, i32 7
  %77 = getelementptr inbounds nuw %struct.gcm_funcs_st, ptr %76, i32 0, i32 2
  %78 = load ptr, ptr %77, align 8, !tbaa !37
  %79 = load ptr, ptr %5, align 8, !tbaa !25
  %80 = getelementptr inbounds nuw %struct.gcm128_context, ptr %79, i32 0, i32 4
  %81 = getelementptr inbounds [2 x i64], ptr %80, i64 0, i64 0
  %82 = load ptr, ptr %5, align 8, !tbaa !25
  %83 = getelementptr inbounds nuw %struct.gcm128_context, ptr %82, i32 0, i32 6
  %84 = getelementptr inbounds [16 x %struct.u128], ptr %83, i64 0, i64 0
  call void %78(ptr noundef %81, ptr noundef %84)
  br label %85

85:                                               ; preds = %74, %69
  br label %86

86:                                               ; preds = %85, %68
  call void @llvm.lifetime.start.p0(i64 8, ptr %14) #5
  %87 = load i64, ptr %9, align 8, !tbaa !21
  store i64 %87, ptr %14, align 8, !tbaa !21
  %88 = load i64, ptr %14, align 8, !tbaa !21
  %89 = call i64 asm "bswapq $0", "=r,0,~{dirflag},~{fpsr},~{flags}"(i64 %88) #6, !srcloc !88
  store i64 %89, ptr %14, align 8, !tbaa !21
  %90 = load i64, ptr %14, align 8, !tbaa !21
  store i64 %90, ptr %15, align 8, !tbaa !21
  call void @llvm.lifetime.end.p0(i64 8, ptr %14) #5
  %91 = load i64, ptr %15, align 8, !tbaa !21
  store i64 %91, ptr %9, align 8, !tbaa !21
  call void @llvm.lifetime.start.p0(i64 8, ptr %16) #5
  %92 = load i64, ptr %10, align 8, !tbaa !21
  store i64 %92, ptr %16, align 8, !tbaa !21
  %93 = load i64, ptr %16, align 8, !tbaa !21
  %94 = call i64 asm "bswapq $0", "=r,0,~{dirflag},~{fpsr},~{flags}"(i64 %93) #6, !srcloc !89
  store i64 %94, ptr %16, align 8, !tbaa !21
  %95 = load i64, ptr %16, align 8, !tbaa !21
  store i64 %95, ptr %17, align 8, !tbaa !21
  call void @llvm.lifetime.end.p0(i64 8, ptr %16) #5
  %96 = load i64, ptr %17, align 8, !tbaa !21
  store i64 %96, ptr %10, align 8, !tbaa !21
  %97 = load i64, ptr %9, align 8, !tbaa !21
  %98 = getelementptr inbounds nuw %struct.u128, ptr %11, i32 0, i32 0
  store i64 %97, ptr %98, align 8, !tbaa !90
  %99 = load i64, ptr %10, align 8, !tbaa !21
  %100 = getelementptr inbounds nuw %struct.u128, ptr %11, i32 0, i32 1
  store i64 %99, ptr %100, align 8, !tbaa !92
  %101 = load ptr, ptr %5, align 8, !tbaa !25
  %102 = getelementptr inbounds nuw %struct.gcm128_context, ptr %101, i32 0, i32 12
  %103 = getelementptr inbounds [48 x i8], ptr %102, i64 0, i64 0
  %104 = load i32, ptr %12, align 4, !tbaa !15
  %105 = zext i32 %104 to i64
  %106 = getelementptr inbounds nuw i8, ptr %103, i64 %105
  call void @llvm.memcpy.p0.p0.i64(ptr align 1 %106, ptr align 8 %11, i64 16, i1 false)
  %107 = load i32, ptr %12, align 4, !tbaa !15
  %108 = zext i32 %107 to i64
  %109 = add i64 %108, 16
  %110 = trunc i64 %109 to i32
  store i32 %110, ptr %12, align 4, !tbaa !15
  %111 = load ptr, ptr %5, align 8, !tbaa !25
  %112 = getelementptr inbounds nuw %struct.gcm128_context, ptr %111, i32 0, i32 7
  %113 = getelementptr inbounds nuw %struct.gcm_funcs_st, ptr %112, i32 0, i32 1
  %114 = load ptr, ptr %113, align 8, !tbaa !44
  %115 = load ptr, ptr %5, align 8, !tbaa !25
  %116 = getelementptr inbounds nuw %struct.gcm128_context, ptr %115, i32 0, i32 4
  %117 = getelementptr inbounds [2 x i64], ptr %116, i64 0, i64 0
  %118 = load ptr, ptr %5, align 8, !tbaa !25
  %119 = getelementptr inbounds nuw %struct.gcm128_context, ptr %118, i32 0, i32 6
  %120 = getelementptr inbounds [16 x %struct.u128], ptr %119, i64 0, i64 0
  %121 = load ptr, ptr %5, align 8, !tbaa !25
  %122 = getelementptr inbounds nuw %struct.gcm128_context, ptr %121, i32 0, i32 12
  %123 = getelementptr inbounds [48 x i8], ptr %122, i64 0, i64 0
  %124 = load i32, ptr %12, align 4, !tbaa !15
  %125 = zext i32 %124 to i64
  call void %114(ptr noundef %117, ptr noundef %120, ptr noundef %123, i64 noundef %125)
  %126 = load ptr, ptr %5, align 8, !tbaa !25
  %127 = getelementptr inbounds nuw %struct.gcm128_context, ptr %126, i32 0, i32 2
  %128 = getelementptr inbounds [2 x i64], ptr %127, i64 0, i64 0
  %129 = load i64, ptr %128, align 8, !tbaa !30
  %130 = load ptr, ptr %5, align 8, !tbaa !25
  %131 = getelementptr inbounds nuw %struct.gcm128_context, ptr %130, i32 0, i32 4
  %132 = getelementptr inbounds [2 x i64], ptr %131, i64 0, i64 0
  %133 = load i64, ptr %132, align 8, !tbaa !30
  %134 = xor i64 %133, %129
  store i64 %134, ptr %132, align 8, !tbaa !30
  %135 = load ptr, ptr %5, align 8, !tbaa !25
  %136 = getelementptr inbounds nuw %struct.gcm128_context, ptr %135, i32 0, i32 2
  %137 = getelementptr inbounds [2 x i64], ptr %136, i64 0, i64 1
  %138 = load i64, ptr %137, align 8, !tbaa !30
  %139 = load ptr, ptr %5, align 8, !tbaa !25
  %140 = getelementptr inbounds nuw %struct.gcm128_context, ptr %139, i32 0, i32 4
  %141 = getelementptr inbounds [2 x i64], ptr %140, i64 0, i64 1
  %142 = load i64, ptr %141, align 8, !tbaa !30
  %143 = xor i64 %142, %138
  store i64 %143, ptr %141, align 8, !tbaa !30
  %144 = load ptr, ptr %6, align 8, !tbaa !17
  %145 = icmp ne ptr %144, null
  br i1 %145, label %146, label %156

146:                                              ; preds = %86
  %147 = load i64, ptr %7, align 8, !tbaa !19
  %148 = icmp ule i64 %147, 16
  br i1 %148, label %149, label %156

149:                                              ; preds = %146
  %150 = load ptr, ptr %5, align 8, !tbaa !25
  %151 = getelementptr inbounds nuw %struct.gcm128_context, ptr %150, i32 0, i32 4
  %152 = getelementptr inbounds [16 x i8], ptr %151, i64 0, i64 0
  %153 = load ptr, ptr %6, align 8, !tbaa !17
  %154 = load i64, ptr %7, align 8, !tbaa !19
  %155 = call i32 @CRYPTO_memcmp(ptr noundef %152, ptr noundef %153, i64 noundef %154)
  store i32 %155, ptr %4, align 4
  store i32 1, ptr %18, align 4
  br label %157

156:                                              ; preds = %146, %86
  store i32 -1, ptr %4, align 4
  store i32 1, ptr %18, align 4
  br label %157

157:                                              ; preds = %156, %149
  call void @llvm.lifetime.end.p0(i64 4, ptr %12) #5
  call void @llvm.lifetime.end.p0(i64 16, ptr %11) #5
  call void @llvm.lifetime.end.p0(i64 8, ptr %10) #5
  call void @llvm.lifetime.end.p0(i64 8, ptr %9) #5
  call void @llvm.lifetime.end.p0(i64 4, ptr %8) #5
  %158 = load i32, ptr %4, align 4
  ret i32 %158
}