; Function Attrs: nounwind uwtable
define i32 @CRYPTO_gcm128_finish(ptr noundef %0, ptr noundef %1, i64 noundef %2) local_unnamed_addr #0 {
  %4 = getelementptr inbounds nuw i8, ptr %0, i64 48
  %5 = load i64, ptr %4, align 8, !tbaa !12
  %6 = shl i64 %5, 3
  %7 = getelementptr inbounds nuw i8, ptr %0, i64 56
  %8 = load i64, ptr %7, align 8, !tbaa !12
  %9 = shl i64 %8, 3
  %10 = getelementptr inbounds nuw i8, ptr %0, i64 376
  %11 = load i32, ptr %10, align 8, !tbaa !19
  %.not = icmp eq i32 %11, 0
  br i1 %.not, label %28, label %12

12:                                               ; preds = %3
  %13 = add i32 %11, 15
  %14 = and i32 %13, -16
  %15 = getelementptr inbounds nuw i8, ptr %0, i64 400
  %16 = zext i32 %11 to i64
  %17 = getelementptr inbounds nuw i8, ptr %15, i64 %16
  %18 = sub i32 %14, %11
  %19 = zext i32 %18 to i64
  tail call void @llvm.memset.p0.i64(ptr nonnull align 1 %17, i8 0, i64 %19, i1 false)
  %20 = icmp eq i32 %14, 48
  br i1 %20, label %21, label %26

21:                                               ; preds = %12
  %22 = getelementptr inbounds nuw i8, ptr %0, i64 360
  %23 = load ptr, ptr %22, align 8, !tbaa !29
  %24 = getelementptr inbounds nuw i8, ptr %0, i64 64
  %25 = getelementptr inbounds nuw i8, ptr %0, i64 96
  tail call void %23(ptr noundef nonnull %24, ptr noundef nonnull %25, ptr noundef nonnull %15, i64 noundef 48) #6
  br label %26

26:                                               ; preds = %21, %12
  %.048 = phi i32 [ 0, %21 ], [ %14, %12 ]
  %27 = zext i32 %.048 to i64
  br label %36

28:                                               ; preds = %3
  %29 = getelementptr inbounds nuw i8, ptr %0, i64 380
  %30 = load i32, ptr %29, align 4, !tbaa !18
  %.not54 = icmp eq i32 %30, 0
  br i1 %.not54, label %36, label %31

31:                                               ; preds = %28
  %32 = getelementptr inbounds nuw i8, ptr %0, i64 368
  %33 = load ptr, ptr %32, align 8, !tbaa !22
  %34 = getelementptr inbounds nuw i8, ptr %0, i64 64
  %35 = getelementptr inbounds nuw i8, ptr %0, i64 96
  tail call void %33(ptr noundef nonnull %34, ptr noundef nonnull %35) #6
  br label %36

36:                                               ; preds = %28, %31, %26
  %.1 = phi i64 [ %27, %26 ], [ 0, %31 ], [ 0, %28 ]
  %37 = tail call i64 asm "bswapq $0", "=r,0,~{dirflag},~{fpsr},~{flags}"(i64 %6) #7, !srcloc !65
  %38 = tail call i64 asm "bswapq $0", "=r,0,~{dirflag},~{fpsr},~{flags}"(i64 %9) #7, !srcloc !66
  %39 = getelementptr inbounds nuw i8, ptr %0, i64 400
  %40 = getelementptr inbounds nuw i8, ptr %39, i64 %.1
  store i64 %37, ptr %40, align 1
  %.sroa.4.0..sroa_idx = getelementptr inbounds nuw i8, ptr %40, i64 8
  store i64 %38, ptr %.sroa.4.0..sroa_idx, align 1
  %41 = add nuw nsw i64 %.1, 16
  %42 = getelementptr inbounds nuw i8, ptr %0, i64 360
  %43 = load ptr, ptr %42, align 8, !tbaa !29
  %44 = getelementptr inbounds nuw i8, ptr %0, i64 64
  %45 = getelementptr inbounds nuw i8, ptr %0, i64 96
  %46 = and i64 %41, 4294967295
  tail call void %43(ptr noundef nonnull %44, ptr noundef nonnull %45, ptr noundef nonnull %39, i64 noundef %46) #6
  %47 = getelementptr inbounds nuw i8, ptr %0, i64 32
  %48 = load i64, ptr %47, align 8, !tbaa !12
  %49 = load i64, ptr %44, align 8, !tbaa !12
  %50 = xor i64 %49, %48
  store i64 %50, ptr %44, align 8, !tbaa !12
  %51 = getelementptr inbounds nuw i8, ptr %0, i64 40
  %52 = load i64, ptr %51, align 8, !tbaa !12
  %53 = getelementptr inbounds nuw i8, ptr %0, i64 72
  %54 = load i64, ptr %53, align 8, !tbaa !12
  %55 = xor i64 %54, %52
  store i64 %55, ptr %53, align 8, !tbaa !12
  %56 = icmp ne ptr %1, null
  %57 = icmp ult i64 %2, 17
  %or.cond = and i1 %56, %57
  br i1 %or.cond, label %58, label %60

58:                                               ; preds = %36
  %59 = tail call i32 @CRYPTO_memcmp(ptr noundef nonnull %44, ptr noundef nonnull %1, i64 noundef %2) #6
  br label %60

60:                                               ; preds = %36, %58
  %.0 = phi i32 [ %59, %58 ], [ -1, %36 ]
  ret i32 %.0
}